target datalayout = "e-m:e-p270:32:32-p271:32:32-p272:64:64-i64:64-i128:128-f80:128-n8:16:32:64-S128"
target triple = "x86_64-pc-linux-gnu"

%class.LogTagSet = type { ptr, i64, [5 x i32], [4 x i8], %class.LogOutputList, %class.LogDecorators, ptr }
%class.LogOutputList = type <{ [6 x ptr], i32, [4 x i8] }>
%class.LogDecorators = type { i32 }
%class.ReferenceProcessor = type { %class.ReferenceDiscoverer, ptr, i8, i8, i8, i32, ptr, ptr, i32, i32, ptr, ptr, ptr, ptr, ptr }
%class.ReferenceDiscoverer = type { ptr }
%class.RefProcProxyTask = type <{ %class.WorkerTask.base, i32, ptr, i32, i32, i8, [7 x i8] }>
%class.WorkerTask.base = type <{ ptr, ptr, i32 }>

@ParallelRefProcEnabled = external global i8, align 1
@.str.10 = private unnamed_addr constant [65 x i8] c"ReferenceProcessor::execute queues: %d, %s, marks_oops_alive: %s\00", align 1
@.str.11 = private unnamed_addr constant [26 x i8] c"RefProcThreadModel::Multi\00", align 1
@.str.12 = private unnamed_addr constant [27 x i8] c"RefProcThreadModel::Single\00", align 1
@.str.13 = private unnamed_addr constant [5 x i8] c"true\00", align 1
@.str.14 = private unnamed_addr constant [6 x i8] c"false\00", align 1
@_ZN16LogTagSetMappingILN6LogTag4typeE49ELS1_126ELS1_0ELS1_0ELS1_0ELS1_0EE7_tagsetE = linkonce_odr hidden global %class.LogTagSet zeroinitializer, comdat, align 8
@_ZN8Universe14_collectedHeapE = external global ptr, align 8

; Function Attrs: mustprogress nounwind uwtable
define linkonce_odr hidden noundef zeroext i1 @_ZNK13LogOutputList8is_levelEN8LogLevel4typeE(ptr noundef nonnull align 8 dereferenceable(52) %0, i32 noundef %1) #1 comdat align 2 {
  %3 = alloca ptr, align 8
  %4 = alloca i32, align 4
  store ptr %0, ptr %3, align 8
  store i32 %1, ptr %4, align 4
  %5 = load ptr, ptr %3, align 8
  %6 = getelementptr inbounds %class.LogOutputList, ptr %5, i32 0, i32 0
  %7 = load i32, ptr %4, align 4
  %8 = zext i32 %7 to i64
  %9 = getelementptr inbounds [6 x ptr], ptr %6, i64 0, i64 %8
  %10 = load volatile ptr, ptr %9, align 8
  %11 = icmp ne ptr %10, null
  ret i1 %11
}

; Function Attrs: mustprogress nounwind uwtable
define linkonce_odr hidden noundef zeroext i1 @_ZNK9LogTagSet8is_levelEN8LogLevel4typeE(ptr noundef nonnull align 8 dereferenceable(112) %0, i32 noundef %1) #1 comdat align 2 {
  %3 = alloca ptr, align 8
  %4 = alloca i32, align 4
  store ptr %0, ptr %3, align 8
  store i32 %1, ptr %4, align 4
  %5 = load ptr, ptr %3, align 8
  %6 = getelementptr inbounds %class.LogTagSet, ptr %5, i32 0, i32 4
  %7 = load i32, ptr %4, align 4
  %8 = call noundef zeroext i1 @_ZNK13LogOutputList8is_levelEN8LogLevel4typeE(ptr noundef nonnull align 8 dereferenceable(52) %6, i32 noundef %7)
  ret i1 %8
}

; Function Attrs: mustprogress nounwind uwtable
define linkonce_odr hidden noundef nonnull align 8 dereferenceable(112) ptr @_ZN16LogTagSetMappingILN6LogTag4typeE49ELS1_126ELS1_0ELS1_0ELS1_0ELS1_0EE6tagsetEv() #1 comdat align 2 {
  ret ptr @_ZN16LogTagSetMappingILN6LogTag4typeE49ELS1_126ELS1_0ELS1_0ELS1_0ELS1_0EE7_tagsetE
}

; Function Attrs: mustprogress nounwind uwtable
define linkonce_odr hidden noundef ptr @_ZN8Universe4heapEv() #1 comdat align 2 {
  %1 = load ptr, ptr @_ZN8Universe14_collectedHeapE, align 8
  ret ptr %1
}

; Function Attrs: mustprogress nounwind uwtable
define linkonce_odr hidden void @_ZN16RefProcProxyTask16prepare_run_taskER11RefProcTaskj18RefProcThreadModelb(ptr noundef nonnull align 8 dereferenceable(41) %0, ptr noundef nonnull align 8 dereferenceable(24) %1, i32 noundef %2, i32 noundef %3, i1 noundef zeroext %4) #1 comdat align 2 {
  %6 = alloca ptr, align 8
  %7 = alloca ptr, align 8
  %8 = alloca i32, align 4
  %9 = alloca i32, align 4
  %10 = alloca i8, align 1
  store ptr %0, ptr %6, align 8
  store ptr %1, ptr %7, align 8
  store i32 %2, ptr %8, align 4
  store i32 %3, ptr %9, align 4
  %11 = zext i1 %4 to i8
  store i8 %11, ptr %10, align 1
  %12 = load ptr, ptr %6, align 8
  %13 = load ptr, ptr %7, align 8
  %14 = getelementptr inbounds %class.RefProcProxyTask, ptr %12, i32 0, i32 2
  store ptr %13, ptr %14, align 8
  %15 = load i32, ptr %9, align 4
  %16 = getelementptr inbounds %class.RefProcProxyTask, ptr %12, i32 0, i32 3
  store i32 %15, ptr %16, align 8
  %17 = load i32, ptr %8, align 4
  %18 = getelementptr inbounds %class.RefProcProxyTask, ptr %12, i32 0, i32 4
  store i32 %17, ptr %18, align 4
  %19 = load i8, ptr %10, align 1
  %20 = trunc i8 %19 to i1
  %21 = getelementptr inbounds %class.RefProcProxyTask, ptr %12, i32 0, i32 5
  %22 = zext i1 %20 to i8
  store i8 %22, ptr %21, align 8
  %23 = load ptr, ptr %12, align 8
  %24 = getelementptr inbounds ptr, ptr %23, i64 1
  %25 = load ptr, ptr %24, align 8
  call void %25(ptr noundef nonnull align 8 dereferenceable(41) %12)
  ret void
}

; Function Attrs: mustprogress nounwind uwtable
define hidden noundef zeroext i1 @_ZNK18ReferenceProcessor16processing_is_mtEv(ptr noundef nonnull align 8 dereferenceable(88) %0) #1 align 2 {
  %2 = alloca ptr, align 8
  store ptr %0, ptr %2, align 8
  %3 = load ptr, ptr %2, align 8
  %4 = load i8, ptr @ParallelRefProcEnabled, align 1
  %5 = trunc i8 %4 to i1
  br i1 %5, label %6, label %10

6:                                                ; preds = %1
  %7 = getelementptr inbounds %class.ReferenceProcessor, ptr %3, i32 0, i32 8
  %8 = load i32, ptr %7, align 8
  %9 = icmp ugt i32 %8, 1
  br label %10

10:                                               ; preds = %6, %1
  %11 = phi i1 [ false, %1 ], [ %9, %6 ]
  ret i1 %11
}

; Function Attrs: mustprogress nounwind uwtable
define linkonce_odr hidden noundef i32 @_ZNK18ReferenceProcessor10num_queuesEv(ptr noundef nonnull align 8 dereferenceable(88) %0) #1 comdat align 2 {
  %2 = alloca ptr, align 8
  store ptr %0, ptr %2, align 8
  %3 = load ptr, ptr %2, align 8
  %4 = getelementptr inbounds %class.ReferenceProcessor, ptr %3, i32 0, i32 8
  %5 = load i32, ptr %4, align 8
  ret i32 %5
}

; Function Attrs: mustprogress nounwind uwtable
define linkonce_odr hidden noundef zeroext i1 @_ZN7LogImplILN6LogTag4typeE49ELS1_126ELS1_0ELS1_0ELS1_0ELS1_0EE8is_levelEN8LogLevel4typeE(i32 noundef %0) #1 comdat align 2 {
  %2 = alloca i32, align 4
  store i32 %0, ptr %2, align 4
  %3 = call noundef nonnull align 8 dereferenceable(112) ptr @_ZN16LogTagSetMappingILN6LogTag4typeE49ELS1_126ELS1_0ELS1_0ELS1_0ELS1_0EE6tagsetEv()
  %4 = load i32, ptr %2, align 4
  %5 = call noundef zeroext i1 @_ZNK9LogTagSet8is_levelEN8LogLevel4typeE(ptr noundef nonnull align 8 dereferenceable(112) %3, i32 noundef %4)
  ret i1 %5
}

; Function Attrs: mustprogress nounwind uwtable
define hidden void @_ZN18ReferenceProcessor8run_taskER11RefProcTaskR16RefProcProxyTaskb(ptr noundef nonnull align 8 dereferenceable(88) %0, ptr noundef nonnull align 8 dereferenceable(24) %1, ptr noundef nonnull align 8 dereferenceable(41) %2, i1 noundef zeroext %3) #1 align 2 {
  %5 = alloca ptr, align 8
  %6 = alloca ptr, align 8
  %7 = alloca ptr, align 8
  %8 = alloca i8, align 1
  %9 = alloca ptr, align 8
  %10 = alloca i32, align 4
  store ptr %0, ptr %5, align 8
  store ptr %1, ptr %6, align 8
  store ptr %2, ptr %7, align 8
  %11 = zext i1 %3 to i8
  store i8 %11, ptr %8, align 1
  %12 = load ptr, ptr %5, align 8
  %13 = call noundef zeroext i1 @_ZN7LogImplILN6LogTag4typeE49ELS1_126ELS1_0ELS1_0ELS1_0ELS1_0EE8is_levelEN8LogLevel4typeE(i32 noundef 2)
  br i1 %13, label %15, label %14

14:                                               ; preds = %4
  br label %22

15:                                               ; preds = %4
  %16 = call noundef i32 @_ZNK18ReferenceProcessor10num_queuesEv(ptr noundef nonnull align 8 dereferenceable(88) %12)
  %17 = call noundef zeroext i1 @_ZNK18ReferenceProcessor16processing_is_mtEv(ptr noundef nonnull align 8 dereferenceable(88) %12)
  %18 = select i1 %17, ptr @.str.11, ptr @.str.12
  %19 = load i8, ptr %8, align 1
  %20 = trunc i8 %19 to i1
  %21 = select i1 %20, ptr @.str.13, ptr @.str.14
  call void (ptr, ...) @_ZN7LogImplILN6LogTag4typeE49ELS1_126ELS1_0ELS1_0ELS1_0ELS1_0EE5writeILN8LogLevel4typeE2EEEvPKcz(ptr noundef @.str.10, i32 noundef %16, ptr noundef %18, ptr noundef %21)
  br label %22

22:                                               ; preds = %15, %14
  %23 = load ptr, ptr %7, align 8
  %24 = load ptr, ptr %6, align 8
  %25 = call noundef i32 @_ZNK18ReferenceProcessor10num_queuesEv(ptr noundef nonnull align 8 dereferenceable(88) %12)
  %26 = call noundef zeroext i1 @_ZNK18ReferenceProcessor16processing_is_mtEv(ptr noundef nonnull align 8 dereferenceable(88) %12)
  %27 = select i1 %26, i32 0, i32 1
  %28 = load i8, ptr %8, align 1
  %29 = trunc i8 %28 to i1
  call void @_ZN16RefProcProxyTask16prepare_run_taskER11RefProcTaskj18RefProcThreadModelb(ptr noundef nonnull align 8 dereferenceable(41) %23, ptr noundef nonnull align 8 dereferenceable(24) %24, i32 noundef %25, i32 noundef %27, i1 noundef zeroext %29)
  %30 = call noundef zeroext i1 @_ZNK18ReferenceProcessor16processing_is_mtEv(ptr noundef nonnull align 8 dereferenceable(88) %12)
  br i1 %30, label %31, label %40

31:                                               ; preds = %22
  %32 = call noundef ptr @_ZN8Universe4heapEv()
  %33 = load ptr, ptr %32, align 8
  %34 = getelementptr inbounds ptr, ptr %33, i64 51
  %35 = load ptr, ptr %34, align 8
  %36 = call noundef ptr %35(ptr noundef nonnull align 8 dereferenceable(104) %32)
  store ptr %36, ptr %9, align 8
  %37 = load ptr, ptr %9, align 8
  %38 = load ptr, ptr %7, align 8
  %39 = call noundef i32 @_ZNK18ReferenceProcessor10num_queuesEv(ptr noundef nonnull align 8 dereferenceable(88) %12)
  call void @_ZN13WorkerThreads8run_taskEP10WorkerTaskj(ptr noundef nonnull align 8 dereferenceable(120) %37, ptr noundef %38, i32 noundef %39)
  br label %56

40:                                               ; preds = %22
  store i32 0, ptr %10, align 4
  br label %41

41:                                               ; preds = %52, %40
  %42 = load i32, ptr %10, align 4
  %43 = getelementptr inbounds %class.ReferenceProcessor, ptr %12, i32 0, i32 9
  %44 = load i32, ptr %43, align 4
  %45 = icmp ult i32 %42, %44
  br i1 %45, label %46, label %55

46:                                               ; preds = %41
  %47 = load ptr, ptr %7, align 8
  %48 = load i32, ptr %10, align 4
  %49 = load ptr, ptr %47, align 8
  %50 = getelementptr inbounds ptr, ptr %49, i64 0
  %51 = load ptr, ptr %50, align 8
  call void %51(ptr noundef nonnull align 8 dereferenceable(20) %47, i32 noundef %48)
  br label %52

52:                                               ; preds = %46
  %53 = load i32, ptr %10, align 4
  %54 = add i32 %53, 1
  store i32 %54, ptr %10, align 4
  br label %41, !llvm.loop !20

55:                                               ; preds = %41
  br label %56

56:                                               ; preds = %55, %31
  ret void
}