; Function Attrs: mustprogress nounwind uwtable
define hidden void @_ZN18ReferenceProcessor8run_taskER11RefProcTaskR16RefProcProxyTaskb(ptr nocapture noundef nonnull readonly align 8 dereferenceable(88) %0, ptr noundef nonnull align 8 dereferenceable(24) %1, ptr noundef nonnull align 8 dereferenceable(41) %2, i1 noundef zeroext %3) local_unnamed_addr #0 align 2 {
  %5 = load volatile ptr, ptr getelementptr inbounds (i8, ptr @_ZN16LogTagSetMappingILN6LogTag4typeE49ELS1_126ELS1_0ELS1_0ELS1_0ELS1_0EE7_tagsetE, i64 56), align 8
  %.not = icmp eq ptr %5, null
  br i1 %.not, label %15, label %6

6:                                                ; preds = %4
  %7 = getelementptr inbounds i8, ptr %0, i64 40
  %8 = load i32, ptr %7, align 8
  %9 = load i8, ptr @ParallelRefProcEnabled, align 1
  %10 = trunc i8 %9 to i1
  %11 = icmp ugt i32 %8, 1
  %12 = and i1 %11, %10
  %13 = select i1 %12, ptr @.str.11, ptr @.str.12
  %14 = select i1 %3, ptr @.str.13, ptr @.str.14
  tail call void (ptr, ...) @_ZN7LogImplILN6LogTag4typeE49ELS1_126ELS1_0ELS1_0ELS1_0ELS1_0EE5writeILN8LogLevel4typeE2EEEvPKcz(ptr noundef nonnull @.str.10, i32 noundef %8, ptr noundef nonnull %13, ptr noundef nonnull %14)
  br label %15

15:                                               ; preds = %4, %6
  %16 = getelementptr inbounds i8, ptr %0, i64 40
  %17 = load i32, ptr %16, align 8
  %18 = load i8, ptr @ParallelRefProcEnabled, align 1
  %19 = trunc i8 %18 to i1
  %20 = icmp ult i32 %17, 2
  %not. = xor i1 %19, true
  %21 = select i1 %not., i1 true, i1 %20
  %22 = zext i1 %21 to i32
  %23 = zext i1 %3 to i8
  %24 = getelementptr inbounds i8, ptr %2, i64 24
  store ptr %1, ptr %24, align 8
  %25 = getelementptr inbounds i8, ptr %2, i64 32
  store i32 %22, ptr %25, align 8
  %26 = getelementptr inbounds i8, ptr %2, i64 36
  store i32 %17, ptr %26, align 4
  %27 = getelementptr inbounds i8, ptr %2, i64 40
  store i8 %23, ptr %27, align 8
  %28 = load ptr, ptr %2, align 8
  %29 = getelementptr inbounds i8, ptr %28, i64 8
  %30 = load ptr, ptr %29, align 8
  tail call void %30(ptr noundef nonnull align 8 dereferenceable(41) %2) #17
  %31 = load i8, ptr @ParallelRefProcEnabled, align 1
  %32 = trunc i8 %31 to i1
  %33 = load i32, ptr %16, align 8
  %34 = icmp ugt i32 %33, 1
  %35 = select i1 %32, i1 %34, i1 false
  br i1 %35, label %38, label %.preheader

.preheader:                                       ; preds = %15
  %36 = getelementptr inbounds i8, ptr %0, i64 44
  %37 = load i32, ptr %36, align 4
  %.not11 = icmp eq i32 %37, 0
  br i1 %.not11, label %.loopexit, label %.lr.ph

38:                                               ; preds = %15
  %39 = load ptr, ptr @_ZN8Universe14_collectedHeapE, align 8
  %40 = load ptr, ptr %39, align 8
  %41 = getelementptr inbounds i8, ptr %40, i64 408
  %42 = load ptr, ptr %41, align 8
  %43 = tail call noundef ptr %42(ptr noundef nonnull align 8 dereferenceable(104) %39) #17
  %44 = load i32, ptr %16, align 8
  tail call void @_ZN13WorkerThreads8run_taskEP10WorkerTaskj(ptr noundef nonnull align 8 dereferenceable(120) %43, ptr noundef nonnull %2, i32 noundef %44) #17
  br label %.loopexit

.lr.ph:                                           ; preds = %.preheader, %.lr.ph
  %.010 = phi i32 [ %47, %.lr.ph ], [ 0, %.preheader ]
  %45 = load ptr, ptr %2, align 8
  %46 = load ptr, ptr %45, align 8
  tail call void %46(ptr noundef nonnull align 8 dereferenceable(20) %2, i32 noundef %.010) #17
  %47 = add nuw i32 %.010, 1
  %48 = load i32, ptr %36, align 4
  %49 = icmp ult i32 %47, %48
  br i1 %49, label %.lr.ph, label %.loopexit, !llvm.loop !19

.loopexit:                                        ; preds = %.lr.ph, %.preheader, %38
  ret void
}